target datalayout = "e-m:e-p270:32:32-p271:32:32-p272:64:64-i64:64-i128:128-f80:128-n8:16:32:64-S128"
target triple = "x86_64-pc-linux-gnu"

%struct.trace_key = type { ptr, i32, i8 }
%struct.index_state = type { ptr, i32, i32, i32, i32, ptr, ptr, ptr, %struct.cache_time, i8, i32, %struct.hashmap, %struct.hashmap, %struct.object_id, ptr, ptr, ptr, ptr, ptr, ptr, ptr }
%struct.cache_time = type { i32, i32 }
%struct.hashmap = type { ptr, ptr, ptr, i32, i32, i32, i32, i8 }
%struct.object_id = type { [32 x i8], i32 }
%struct.cache_entry = type { %struct.hashmap_entry, %struct.stat_data, i32, i32, i32, i32, i32, %struct.object_id, [0 x i8] }
%struct.hashmap_entry = type { ptr, i32 }
%struct.stat_data = type { %struct.cache_time, %struct.cache_time, i32, i32, i32, i32, i32 }

@trace_fsmonitor = external global %struct.trace_key, align 8
@.str.49 = private unnamed_addr constant [14 x i8] c"./fsmonitor.h\00", align 1
@.str.53 = private unnamed_addr constant [28 x i8] c"mark_fsmonitor_invalid '%s'\00", align 1

; Function Attrs: inlinehint nounwind uwtable
define internal i32 @trace_pass_fl(ptr noundef %0) #3 {
  %2 = alloca ptr, align 8
  store ptr %0, ptr %2, align 8, !tbaa !102
  %3 = load ptr, ptr %2, align 8, !tbaa !102
  %4 = getelementptr inbounds nuw %struct.trace_key, ptr %3, i32 0, i32 1
  %5 = load i32, ptr %4, align 8, !tbaa !104
  %6 = icmp ne i32 %5, 0
  br i1 %6, label %15, label %7

7:                                                ; preds = %1
  %8 = load ptr, ptr %2, align 8, !tbaa !102
  %9 = getelementptr inbounds nuw %struct.trace_key, ptr %8, i32 0, i32 2
  %10 = load i8, ptr %9, align 4
  %11 = and i8 %10, 1
  %12 = zext i8 %11 to i32
  %13 = icmp ne i32 %12, 0
  %14 = xor i1 %13, true
  br label %15

15:                                               ; preds = %7, %1
  %16 = phi i1 [ true, %1 ], [ %14, %7 ]
  %17 = zext i1 %16 to i32
  ret i32 %17
}

; Function Attrs: inlinehint nounwind uwtable
define internal void @mark_fsmonitor_invalid(ptr noundef %0, ptr noundef %1) #3 {
  %3 = alloca ptr, align 8
  %4 = alloca ptr, align 8
  %5 = alloca i32, align 4
  store ptr %0, ptr %3, align 8, !tbaa !4
  store ptr %1, ptr %4, align 8, !tbaa !29
  call void @llvm.lifetime.start.p0(i64 4, ptr %5) #12
  %6 = load ptr, ptr %3, align 8, !tbaa !4
  %7 = getelementptr inbounds nuw %struct.index_state, ptr %6, i32 0, i32 19
  %8 = load ptr, ptr %7, align 8, !tbaa !41
  %9 = call i32 @fsm_settings__get_mode(ptr noundef %8)
  store i32 %9, ptr %5, align 4, !tbaa !9
  %10 = load i32, ptr %5, align 4, !tbaa !9
  %11 = icmp sgt i32 %10, 0
  br i1 %11, label %12, label %31

12:                                               ; preds = %2
  %13 = load ptr, ptr %4, align 8, !tbaa !29
  %14 = getelementptr inbounds nuw %struct.cache_entry, ptr %13, i32 0, i32 3
  %15 = load i32, ptr %14, align 8, !tbaa !9
  %16 = and i32 %15, -2097153
  store i32 %16, ptr %14, align 8, !tbaa !9
  %17 = load ptr, ptr %3, align 8, !tbaa !4
  %18 = load ptr, ptr %4, align 8, !tbaa !29
  %19 = getelementptr inbounds nuw %struct.cache_entry, ptr %18, i32 0, i32 8
  %20 = getelementptr inbounds [0 x i8], ptr %19, i64 0, i64 0
  call void @untracked_cache_invalidate_path(ptr noundef %17, ptr noundef %20, i32 noundef 1)
  br label %21

21:                                               ; preds = %12
  %22 = call i32 @trace_pass_fl(ptr noundef @trace_fsmonitor)
  %23 = icmp ne i32 %22, 0
  br i1 %23, label %24, label %28

24:                                               ; preds = %21
  %25 = load ptr, ptr %4, align 8, !tbaa !29
  %26 = getelementptr inbounds nuw %struct.cache_entry, ptr %25, i32 0, i32 8
  %27 = getelementptr inbounds [0 x i8], ptr %26, i64 0, i64 0
  call void (ptr, i32, ptr, ptr, ...) @trace_printf_key_fl(ptr noundef @.str.49, i32 noundef 67, ptr noundef @trace_fsmonitor, ptr noundef @.str.53, ptr noundef %27)
  br label %28

28:                                               ; preds = %24, %21
  br label %29

29:                                               ; preds = %28
  br label %30

30:                                               ; preds = %29
  br label %31

31:                                               ; preds = %30, %2
  call void @llvm.lifetime.end.p0(i64 4, ptr %5) #12
  ret void
}

; Function Attrs: nounwind uwtable
define dso_local i32 @chmod_index_entry(ptr noundef %0, ptr noundef %1, i8 noundef signext %2) #0 {
  %4 = alloca i32, align 4
  %5 = alloca ptr, align 8
  %6 = alloca ptr, align 8
  %7 = alloca i8, align 1
  store ptr %0, ptr %5, align 8, !tbaa !4
  store ptr %1, ptr %6, align 8, !tbaa !29
  store i8 %2, ptr %7, align 1, !tbaa !73
  %8 = load ptr, ptr %6, align 8, !tbaa !29
  %9 = getelementptr inbounds nuw %struct.cache_entry, ptr %8, i32 0, i32 2
  %10 = load i32, ptr %9, align 4, !tbaa !9
  %11 = and i32 %10, 61440
  %12 = icmp eq i32 %11, 32768
  br i1 %12, label %14, label %13

13:                                               ; preds = %3
  store i32 -1, ptr %4, align 4
  br label %43

14:                                               ; preds = %3
  %15 = load i8, ptr %7, align 1, !tbaa !73
  %16 = sext i8 %15 to i32
  switch i32 %16, label %27 [
    i32 43, label %17
    i32 45, label %22
  ]

17:                                               ; preds = %14
  %18 = load ptr, ptr %6, align 8, !tbaa !29
  %19 = getelementptr inbounds nuw %struct.cache_entry, ptr %18, i32 0, i32 2
  %20 = load i32, ptr %19, align 4, !tbaa !9
  %21 = or i32 %20, 73
  store i32 %21, ptr %19, align 4, !tbaa !9
  br label %28

22:                                               ; preds = %14
  %23 = load ptr, ptr %6, align 8, !tbaa !29
  %24 = getelementptr inbounds nuw %struct.cache_entry, ptr %23, i32 0, i32 2
  %25 = load i32, ptr %24, align 4, !tbaa !9
  %26 = and i32 %25, -74
  store i32 %26, ptr %24, align 4, !tbaa !9
  br label %28

27:                                               ; preds = %14
  store i32 -2, ptr %4, align 4
  br label %43

28:                                               ; preds = %22, %17
  %29 = load ptr, ptr %5, align 8, !tbaa !4
  %30 = load ptr, ptr %6, align 8, !tbaa !29
  %31 = getelementptr inbounds nuw %struct.cache_entry, ptr %30, i32 0, i32 8
  %32 = getelementptr inbounds [0 x i8], ptr %31, i64 0, i64 0
  call void @cache_tree_invalidate_path(ptr noundef %29, ptr noundef %32)
  %33 = load ptr, ptr %6, align 8, !tbaa !29
  %34 = getelementptr inbounds nuw %struct.cache_entry, ptr %33, i32 0, i32 3
  %35 = load i32, ptr %34, align 8, !tbaa !9
  %36 = or i32 %35, 134217728
  store i32 %36, ptr %34, align 8, !tbaa !9
  %37 = load ptr, ptr %5, align 8, !tbaa !4
  %38 = load ptr, ptr %6, align 8, !tbaa !29
  call void @mark_fsmonitor_invalid(ptr noundef %37, ptr noundef %38)
  %39 = load ptr, ptr %5, align 8, !tbaa !4
  %40 = getelementptr inbounds nuw %struct.index_state, ptr %39, i32 0, i32 4
  %41 = load i32, ptr %40, align 4, !tbaa !33
  %42 = or i32 %41, 2
  store i32 %42, ptr %40, align 4, !tbaa !33
  store i32 0, ptr %4, align 4
  br label %43

43:                                               ; preds = %28, %27, %13
  %44 = load i32, ptr %4, align 4
  ret i32 %44
}