; Function Attrs: nounwind uwtable
define dso_local range(i32 -2, 1) i32 @chmod_index_entry(ptr noundef %0, ptr noundef %1, i8 noundef signext %2) local_unnamed_addr #0 {
  %4 = getelementptr inbounds nuw i8, ptr %1, i64 52
  %5 = load i32, ptr %4, align 4, !tbaa !32
  %6 = and i32 %5, 61440
  %7 = icmp eq i32 %6, 32768
  br i1 %7, label %8, label %30

8:                                                ; preds = %3
  switch i8 %2, label %30 [
    i8 43, label %9
    i8 45, label %11
  ]

9:                                                ; preds = %8
  %10 = or i32 %5, 73
  br label %13

11:                                               ; preds = %8
  %12 = and i32 %5, -28746
  br label %13

13:                                               ; preds = %11, %9
  %storemerge = phi i32 [ %12, %11 ], [ %10, %9 ]
  store i32 %storemerge, ptr %4, align 4, !tbaa !32
  %14 = getelementptr inbounds nuw i8, ptr %1, i64 108
  tail call void @cache_tree_invalidate_path(ptr noundef %0, ptr noundef nonnull %14) #30
  %15 = getelementptr inbounds nuw i8, ptr %1, i64 56
  %16 = load i32, ptr %15, align 8, !tbaa !32
  %17 = or i32 %16, 134217728
  store i32 %17, ptr %15, align 8, !tbaa !32
  %18 = getelementptr inbounds nuw i8, ptr %0, i64 240
  %19 = load ptr, ptr %18, align 8, !tbaa !46
  %20 = tail call i32 @fsm_settings__get_mode(ptr noundef %19) #30
  %21 = icmp sgt i32 %20, 0
  br i1 %21, label %22, label %mark_fsmonitor_invalid.exit

22:                                               ; preds = %13
  %23 = load i32, ptr %15, align 8, !tbaa !32
  %24 = and i32 %23, -2097153
  store i32 %24, ptr %15, align 8, !tbaa !32
  tail call void @untracked_cache_invalidate_path(ptr noundef nonnull %0, ptr noundef nonnull %14, i32 noundef 1) #30
  %trace_fsmonitor.val.i = load i32, ptr getelementptr inbounds nuw (i8, ptr @trace_fsmonitor, i64 8), align 8, !tbaa !47
  %trace_fsmonitor.val5.i = load i8, ptr getelementptr inbounds nuw (i8, ptr @trace_fsmonitor, i64 12), align 4
  %.not.i.i = icmp eq i32 %trace_fsmonitor.val.i, 0
  %25 = and i8 %trace_fsmonitor.val5.i, 1
  %.not6.i = icmp ne i8 %25, 0
  %.not.i = select i1 %.not.i.i, i1 %.not6.i, i1 false
  br i1 %.not.i, label %mark_fsmonitor_invalid.exit, label %26

26:                                               ; preds = %22
  tail call void (ptr, i32, ptr, ptr, ...) @trace_printf_key_fl(ptr noundef nonnull @.str.49, i32 noundef 67, ptr noundef nonnull @trace_fsmonitor, ptr noundef nonnull @.str.53, ptr noundef nonnull %14) #30
  br label %mark_fsmonitor_invalid.exit

mark_fsmonitor_invalid.exit:                      ; preds = %13, %22, %26
  %27 = getelementptr inbounds nuw i8, ptr %0, i64 20
  %28 = load i32, ptr %27, align 4, !tbaa !33
  %29 = or i32 %28, 2
  store i32 %29, ptr %27, align 4, !tbaa !33
  br label %30

30:                                               ; preds = %8, %3, %mark_fsmonitor_invalid.exit
  %.0 = phi i32 [ 0, %mark_fsmonitor_invalid.exit ], [ -1, %3 ], [ -2, %8 ]
  ret i32 %.0
}